target datalayout = "e-m:e-p270:32:32-p271:32:32-p272:64:64-i64:64-i128:128-f80:128-n8:16:32:64-S128"
target triple = "x86_64-pc-linux-gnu"

%"class.cvc5::internal::NodeTemplate" = type { ptr }
%"class.cvc5::internal::NodeTemplate.0" = type { ptr }
%"class.cvc5::internal::theory::Rewriter" = type { ptr, ptr, [14 x ptr], %"class.std::vector", %"class.std::unique_ptr", %"class.std::unordered_set" }
%"class.std::vector" = type { %"struct.std::_Vector_base" }
%"struct.std::_Vector_base" = type { %"struct.std::_Vector_base<std::unique_ptr<cvc5::internal::theory::NoOpTheoryRewriter>, std::allocator<std::unique_ptr<cvc5::internal::theory::NoOpTheoryRewriter>>>::_Vector_impl" }
%"struct.std::_Vector_base<std::unique_ptr<cvc5::internal::theory::NoOpTheoryRewriter>, std::allocator<std::unique_ptr<cvc5::internal::theory::NoOpTheoryRewriter>>>::_Vector_impl" = type { %"struct.std::_Vector_base<std::unique_ptr<cvc5::internal::theory::NoOpTheoryRewriter>, std::allocator<std::unique_ptr<cvc5::internal::theory::NoOpTheoryRewriter>>>::_Vector_impl_data" }
%"struct.std::_Vector_base<std::unique_ptr<cvc5::internal::theory::NoOpTheoryRewriter>, std::allocator<std::unique_ptr<cvc5::internal::theory::NoOpTheoryRewriter>>>::_Vector_impl_data" = type { ptr, ptr, ptr }
%"class.std::unique_ptr" = type { %"struct.std::__uniq_ptr_data" }
%"struct.std::__uniq_ptr_data" = type { %"class.std::__uniq_ptr_impl" }
%"class.std::__uniq_ptr_impl" = type { %"class.std::tuple" }
%"class.std::tuple" = type { %"struct.std::_Tuple_impl" }
%"struct.std::_Tuple_impl" = type { %"struct.std::_Head_base.2" }
%"struct.std::_Head_base.2" = type { ptr }
%"class.std::unordered_set" = type { %"class.std::_Hashtable" }
%"class.std::_Hashtable" = type { ptr, i64, %"struct.std::__detail::_Hash_node_base", i64, %"struct.std::__detail::_Prime_rehash_policy", ptr }
%"struct.std::__detail::_Hash_node_base" = type { ptr }
%"struct.std::__detail::_Prime_rehash_policy" = type { float, i64 }
%"struct.cvc5::internal::theory::RewriteResponse" = type { i32, %"class.cvc5::internal::NodeTemplate" }
%"class.cvc5::internal::TrustNode" = type { i32, %"class.cvc5::internal::NodeTemplate", ptr }
%"struct.cvc5::internal::theory::TrustRewriteResponse" = type { i32, %"class.cvc5::internal::TrustNode" }

; Function Attrs: mustprogress nounwind uwtable
define linkonce_odr hidden void @_ZN4cvc58internal12NodeTemplateILb0EED2Ev(ptr noundef nonnull align 8 dereferenceable(8) %0) unnamed_addr #5 comdat align 2 {
  %2 = alloca ptr, align 8
  store ptr %0, ptr %2, align 8, !tbaa !10
  ret void
}

; Function Attrs: mustprogress nounwind uwtable
define linkonce_odr hidden void @_ZN4cvc58internal12NodeTemplateILb0EEC2ERKS2_(ptr noundef nonnull align 8 dereferenceable(8) %0, ptr noundef nonnull align 8 dereferenceable(8) %1) unnamed_addr #5 comdat align 2 {
  %3 = alloca ptr, align 8
  %4 = alloca ptr, align 8
  store ptr %0, ptr %3, align 8, !tbaa !10
  store ptr %1, ptr %4, align 8, !tbaa !10
  %5 = load ptr, ptr %3, align 8
  %6 = load ptr, ptr %4, align 8, !tbaa !10
  %7 = getelementptr inbounds nuw %"class.cvc5::internal::NodeTemplate.0", ptr %6, i32 0, i32 0
  %8 = load ptr, ptr %7, align 8, !tbaa !12
  %9 = getelementptr inbounds nuw %"class.cvc5::internal::NodeTemplate.0", ptr %5, i32 0, i32 0
  store ptr %8, ptr %9, align 8, !tbaa !12
  ret void
}

; Function Attrs: mustprogress uwtable
define hidden void @_ZN4cvc58internal6theory8Rewriter10preRewriteENS1_8TheoryIdENS0_12NodeTemplateILb0EEEPNS0_19TConvProofGeneratorE(ptr dead_on_unwind noalias writable sret(%"struct.cvc5::internal::theory::RewriteResponse") align 8 %0, ptr noundef nonnull align 8 dereferenceable(216) %1, i32 noundef %2, ptr noundef %3, ptr noundef %4) #4 align 2 personality ptr @__gxx_personality_v0 {
  %6 = alloca ptr, align 8
  %7 = alloca ptr, align 8
  %8 = alloca i32, align 4
  %9 = alloca ptr, align 8
  %10 = alloca ptr, align 8
  %11 = alloca %"struct.cvc5::internal::theory::TrustRewriteResponse", align 8
  %12 = alloca %"class.cvc5::internal::NodeTemplate.0", align 8
  %13 = alloca ptr, align 8
  %14 = alloca i32, align 4
  %15 = alloca %"class.cvc5::internal::NodeTemplate.0", align 8
  store ptr %0, ptr %6, align 8
  store ptr %1, ptr %7, align 8, !tbaa !3
  store i32 %2, ptr %8, align 4, !tbaa !8
  store ptr %3, ptr %9, align 8, !tbaa !10
  store ptr %4, ptr %10, align 8, !tbaa !63
  %16 = load ptr, ptr %7, align 8
  %17 = load ptr, ptr %10, align 8, !tbaa !63
  %18 = icmp ne ptr %17, null
  br i1 %18, label %19, label %41

19:                                               ; preds = %5
  call void @llvm.lifetime.start.p0(i64 32, ptr %11) #3
  %20 = getelementptr inbounds nuw %"class.cvc5::internal::theory::Rewriter", ptr %16, i32 0, i32 2
  %21 = load i32, ptr %8, align 4, !tbaa !8
  %22 = zext i32 %21 to i64
  %23 = getelementptr inbounds nuw [14 x ptr], ptr %20, i64 0, i64 %22
  %24 = load ptr, ptr %23, align 8, !tbaa !86
  call void @_ZN4cvc58internal12NodeTemplateILb0EEC2ERKS2_(ptr noundef nonnull align 8 dereferenceable(8) %12, ptr noundef nonnull align 8 dereferenceable(8) %3)
  %25 = load ptr, ptr %24, align 8, !tbaa !19
  %26 = getelementptr inbounds ptr, ptr %25, i64 6
  %27 = load ptr, ptr %26, align 8
  invoke void %27(ptr dead_on_unwind writable sret(%"struct.cvc5::internal::theory::TrustRewriteResponse") align 8 %11, ptr noundef nonnull align 8 dereferenceable(64) %24, ptr noundef %12)
          to label %28 unwind label %32

28:                                               ; preds = %19
  call void @_ZN4cvc58internal12NodeTemplateILb0EED2Ev(ptr noundef nonnull align 8 dereferenceable(8) %12) #3
  %29 = load i32, ptr %8, align 4, !tbaa !8
  %30 = load ptr, ptr %10, align 8, !tbaa !63
  invoke void @_ZN4cvc58internal6theory8Rewriter27processTrustRewriteResponseENS1_8TheoryIdERKNS1_20TrustRewriteResponseEbPNS0_19TConvProofGeneratorE(ptr dead_on_unwind writable sret(%"struct.cvc5::internal::theory::RewriteResponse") align 8 %0, ptr noundef nonnull align 8 dereferenceable(216) %16, i32 noundef %29, ptr noundef nonnull align 8 dereferenceable(32) %11, i1 noundef zeroext true, ptr noundef %30)
          to label %31 unwind label %36

31:                                               ; preds = %28
  call void @_ZN4cvc58internal6theory20TrustRewriteResponseD2Ev(ptr noundef nonnull align 8 dereferenceable(32) %11) #3
  call void @llvm.lifetime.end.p0(i64 32, ptr %11) #3
  br label %55

32:                                               ; preds = %19
  %33 = landingpad { ptr, i32 }
          cleanup
  %34 = extractvalue { ptr, i32 } %33, 0
  store ptr %34, ptr %13, align 8
  %35 = extractvalue { ptr, i32 } %33, 1
  store i32 %35, ptr %14, align 4
  call void @_ZN4cvc58internal12NodeTemplateILb0EED2Ev(ptr noundef nonnull align 8 dereferenceable(8) %12) #3
  br label %40

36:                                               ; preds = %28
  %37 = landingpad { ptr, i32 }
          cleanup
  %38 = extractvalue { ptr, i32 } %37, 0
  store ptr %38, ptr %13, align 8
  %39 = extractvalue { ptr, i32 } %37, 1
  store i32 %39, ptr %14, align 4
  call void @_ZN4cvc58internal6theory20TrustRewriteResponseD2Ev(ptr noundef nonnull align 8 dereferenceable(32) %11) #3
  br label %40

40:                                               ; preds = %36, %32
  call void @llvm.lifetime.end.p0(i64 32, ptr %11) #3
  br label %56

41:                                               ; preds = %5
  %42 = getelementptr inbounds nuw %"class.cvc5::internal::theory::Rewriter", ptr %16, i32 0, i32 2
  %43 = load i32, ptr %8, align 4, !tbaa !8
  %44 = zext i32 %43 to i64
  %45 = getelementptr inbounds nuw [14 x ptr], ptr %42, i64 0, i64 %44
  %46 = load ptr, ptr %45, align 8, !tbaa !86
  call void @_ZN4cvc58internal12NodeTemplateILb0EEC2ERKS2_(ptr noundef nonnull align 8 dereferenceable(8) %15, ptr noundef nonnull align 8 dereferenceable(8) %3)
  %47 = load ptr, ptr %46, align 8, !tbaa !19
  %48 = getelementptr inbounds ptr, ptr %47, i64 5
  %49 = load ptr, ptr %48, align 8
  invoke void %49(ptr dead_on_unwind writable sret(%"struct.cvc5::internal::theory::RewriteResponse") align 8 %0, ptr noundef nonnull align 8 dereferenceable(64) %46, ptr noundef %15)
          to label %50 unwind label %51

50:                                               ; preds = %41
  call void @_ZN4cvc58internal12NodeTemplateILb0EED2Ev(ptr noundef nonnull align 8 dereferenceable(8) %15) #3
  br label %55

51:                                               ; preds = %41
  %52 = landingpad { ptr, i32 }
          cleanup
  %53 = extractvalue { ptr, i32 } %52, 0
  store ptr %53, ptr %13, align 8
  %54 = extractvalue { ptr, i32 } %52, 1
  store i32 %54, ptr %14, align 4
  call void @_ZN4cvc58internal12NodeTemplateILb0EED2Ev(ptr noundef nonnull align 8 dereferenceable(8) %15) #3
  br label %56

55:                                               ; preds = %50, %31
  ret void

56:                                               ; preds = %51, %40
  %57 = load ptr, ptr %13, align 8
  %58 = load i32, ptr %14, align 4
  %59 = insertvalue { ptr, i32 } poison, ptr %57, 0
  %60 = insertvalue { ptr, i32 } %59, i32 %58, 1
  resume { ptr, i32 } %60
}