; Function Attrs: mustprogress uwtable
define hidden void @_ZN4cvc58internal6theory8Rewriter10preRewriteENS1_8TheoryIdENS0_12NodeTemplateILb0EEEPNS0_19TConvProofGeneratorE(ptr dead_on_unwind noalias writable sret(%"struct.cvc5::internal::theory::RewriteResponse") align 8 %0, ptr noundef nonnull readonly align 8 captures(none) dereferenceable(216) %1, i32 noundef %2, ptr noundef readonly captures(none) %3, ptr noundef %4) local_unnamed_addr #3 align 2 personality ptr @__gxx_personality_v0 {
  %6 = alloca %"struct.cvc5::internal::theory::TrustRewriteResponse", align 8
  %7 = alloca %"class.cvc5::internal::NodeTemplate.0", align 8
  %8 = alloca %"class.cvc5::internal::NodeTemplate.0", align 8
  %.not = icmp eq ptr %4, null
  br i1 %.not, label %35, label %9

9:                                                ; preds = %5
  call void @llvm.lifetime.start.p0(i64 32, ptr nonnull %6) #24
  %10 = getelementptr inbounds nuw i8, ptr %1, i64 16
  %11 = zext i32 %2 to i64
  %12 = getelementptr inbounds nuw [14 x ptr], ptr %10, i64 0, i64 %11
  %13 = load ptr, ptr %12, align 8, !tbaa !393
  %14 = load ptr, ptr %3, align 8, !tbaa !3
  store ptr %14, ptr %7, align 8, !tbaa !3
  %15 = load ptr, ptr %13, align 8, !tbaa !395
  %16 = getelementptr inbounds nuw i8, ptr %15, i64 48
  %17 = load ptr, ptr %16, align 8
  call void %17(ptr dead_on_unwind nonnull writable sret(%"struct.cvc5::internal::theory::TrustRewriteResponse") align 8 %6, ptr noundef nonnull align 8 dereferenceable(64) %13, ptr noundef nonnull %7)
  invoke void @_ZN4cvc58internal6theory8Rewriter27processTrustRewriteResponseENS1_8TheoryIdERKNS1_20TrustRewriteResponseEbPNS0_19TConvProofGeneratorE(ptr dead_on_unwind writable sret(%"struct.cvc5::internal::theory::RewriteResponse") align 8 %0, ptr noundef nonnull align 8 dereferenceable(216) %1, i32 noundef %2, ptr noundef nonnull align 8 dereferenceable(32) %6, i1 noundef zeroext true, ptr noundef nonnull %4)
          to label %18 unwind label %33

18:                                               ; preds = %9
  %19 = getelementptr inbounds nuw i8, ptr %6, i64 16
  %20 = load ptr, ptr %19, align 8, !tbaa !11
  %21 = load i64, ptr %20, align 8
  %22 = and i64 %21, 1152920405095219200
  %.not.i.i.i.i = icmp eq i64 %22, 1152920405095219200
  br i1 %.not.i.i.i.i, label %_ZN4cvc58internal6theory20TrustRewriteResponseD2Ev.exit, label %23, !prof !114

23:                                               ; preds = %18
  %24 = add i64 %21, 1152920405095219200
  %25 = and i64 %24, 1152920405095219200
  %26 = and i64 %21, -1152920405095219201
  %27 = or disjoint i64 %25, %26
  store i64 %27, ptr %20, align 8
  %28 = icmp eq i64 %25, 0
  br i1 %28, label %29, label %_ZN4cvc58internal6theory20TrustRewriteResponseD2Ev.exit, !prof !114

29:                                               ; preds = %23
  invoke void @_ZN4cvc58internal4expr9NodeValue15markForDeletionEv(ptr noundef nonnull align 8 dereferenceable(24) %20)
          to label %_ZN4cvc58internal6theory20TrustRewriteResponseD2Ev.exit unwind label %30

30:                                               ; preds = %29
  %31 = landingpad { ptr, i32 }
          catch ptr null
  %32 = extractvalue { ptr, i32 } %31, 0
  call void @__clang_call_terminate(ptr %32) #25
  unreachable

_ZN4cvc58internal6theory20TrustRewriteResponseD2Ev.exit: ; preds = %18, %23, %29
  call void @llvm.lifetime.end.p0(i64 32, ptr nonnull %6) #24
  br label %44

33:                                               ; preds = %9
  %34 = landingpad { ptr, i32 }
          cleanup
  call void @_ZN4cvc58internal6theory20TrustRewriteResponseD2Ev(ptr noundef nonnull align 8 dereferenceable(32) %6) #24
  call void @llvm.lifetime.end.p0(i64 32, ptr nonnull %6) #24
  resume { ptr, i32 } %34

35:                                               ; preds = %5
  %36 = getelementptr inbounds nuw i8, ptr %1, i64 16
  %37 = zext i32 %2 to i64
  %38 = getelementptr inbounds nuw [14 x ptr], ptr %36, i64 0, i64 %37
  %39 = load ptr, ptr %38, align 8, !tbaa !393
  %40 = load ptr, ptr %3, align 8, !tbaa !3
  store ptr %40, ptr %8, align 8, !tbaa !3
  %41 = load ptr, ptr %39, align 8, !tbaa !395
  %42 = getelementptr inbounds nuw i8, ptr %41, i64 40
  %43 = load ptr, ptr %42, align 8
  call void %43(ptr dead_on_unwind writable sret(%"struct.cvc5::internal::theory::RewriteResponse") align 8 %0, ptr noundef nonnull align 8 dereferenceable(64) %39, ptr noundef nonnull %8)
  br label %44

44:                                               ; preds = %35, %_ZN4cvc58internal6theory20TrustRewriteResponseD2Ev.exit
  ret void
}